; Function Attrs: mustprogress uwtable
define internal void @_ZN12_GLOBAL__N_135grpc_ssl_channel_security_connector15add_handshakersERKN9grpc_core11ChannelArgsEP16grpc_pollset_setPNS1_16HandshakeManagerE(ptr noundef nonnull align 8 dereferenceable(136) %this, ptr noundef nonnull align 8 dereferenceable(8) %args, ptr nocapture readnone %0, ptr noundef %handshake_mgr) unnamed_addr #3 align 2 personality ptr @__gxx_personality_v0 {
entry:
  %tsi_hs = alloca ptr, align 8
  %agg.tmp = alloca %"class.grpc_core::RefCountedPtr.46", align 8
  store ptr null, ptr %tsi_hs, align 8
  %client_handshaker_factory_ = getelementptr inbounds i8, ptr %this, i64 56
  %1 = load ptr, ptr %client_handshaker_factory_, align 8
  %overridden_target_name_ = getelementptr inbounds i8, ptr %this, i64 96
  %call = tail call noundef zeroext i1 @_ZNKSt7__cxx1112basic_stringIcSt11char_traitsIcESaIcEE5emptyEv(ptr noundef nonnull align 8 dereferenceable(32) %overridden_target_name_) #17
  %target_name_ = getelementptr inbounds i8, ptr %this, i64 64
  %overridden_target_name_.sink = select i1 %call, ptr %target_name_, ptr %overridden_target_name_
  %call4 = tail call noundef ptr @_ZNKSt7__cxx1112basic_stringIcSt11char_traitsIcESaIcEE5c_strEv(ptr noundef nonnull align 8 dereferenceable(32) %overridden_target_name_.sink) #17
  %call5 = call noundef i32 @_Z51tsi_ssl_client_handshaker_factory_create_handshakerP33tsi_ssl_client_handshaker_factoryPKcmmPP14tsi_handshaker(ptr noundef %1, ptr noundef %call4, i64 noundef 0, i64 noundef 0, ptr noundef nonnull %tsi_hs)
  %cmp.not = icmp eq i32 %call5, 0
  br i1 %cmp.not, label %if.end, label %if.then

if.then:                                          ; preds = %entry
  %call6 = call noundef ptr @_Z20tsi_result_to_string10tsi_result(i32 noundef %call5)
  call void (ptr, i32, i32, ptr, ...) @gpr_log(ptr noundef nonnull @.str, i32 noundef 115, i32 noundef 2, ptr noundef nonnull @.str.20, ptr noundef %call6)
  br label %return

if.end:                                           ; preds = %entry
  %2 = load ptr, ptr %tsi_hs, align 8
  call void @_ZN9grpc_core24SecurityHandshakerCreateEP14tsi_handshakerP23grpc_security_connectorRKNS_11ChannelArgsE(ptr nonnull sret(%"class.grpc_core::RefCountedPtr.46") align 8 %agg.tmp, ptr noundef %2, ptr noundef nonnull %this, ptr noundef nonnull align 8 dereferenceable(8) %args)
  invoke void @_ZN9grpc_core16HandshakeManager3AddENS_13RefCountedPtrINS_10HandshakerEEE(ptr noundef nonnull align 8 dereferenceable(216) %handshake_mgr, ptr noundef nonnull %agg.tmp)
          to label %invoke.cont unwind label %lpad

invoke.cont:                                      ; preds = %if.end
  %3 = load ptr, ptr %agg.tmp, align 8
  %cmp.not.i = icmp eq ptr %3, null
  br i1 %cmp.not.i, label %return, label %if.then.i

if.then.i:                                        ; preds = %invoke.cont
  %refs_.i.i = getelementptr inbounds i8, ptr %3, i64 8
  %4 = atomicrmw sub ptr %refs_.i.i, i64 1 acq_rel, align 8
  %cmp.i.i.i = icmp eq i64 %4, 1
  br i1 %cmp.i.i.i, label %if.then.i.i, label %return

if.then.i.i:                                      ; preds = %if.then.i
  %vtable.i.i.i = load ptr, ptr %3, align 8
  %vfn.i.i.i = getelementptr inbounds i8, ptr %vtable.i.i.i, i64 8
  %5 = load ptr, ptr %vfn.i.i.i, align 8
  call void %5(ptr noundef nonnull align 8 dereferenceable(16) %3) #17
  br label %return

return:                                           ; preds = %if.then.i.i, %if.then.i, %invoke.cont, %if.then
  ret void

lpad:                                             ; preds = %if.end
  %6 = landingpad { ptr, i32 }
          cleanup
  %7 = load ptr, ptr %agg.tmp, align 8
  %cmp.not.i2 = icmp eq ptr %7, null
  br i1 %cmp.not.i2, label %_ZN9grpc_core13RefCountedPtrINS_10HandshakerEED2Ev.exit9, label %if.then.i3

if.then.i3:                                       ; preds = %lpad
  %refs_.i.i4 = getelementptr inbounds i8, ptr %7, i64 8
  %8 = atomicrmw sub ptr %refs_.i.i4, i64 1 acq_rel, align 8
  %cmp.i.i.i5 = icmp eq i64 %8, 1
  br i1 %cmp.i.i.i5, label %if.then.i.i6, label %_ZN9grpc_core13RefCountedPtrINS_10HandshakerEED2Ev.exit9

if.then.i.i6:                                     ; preds = %if.then.i3
  %vtable.i.i.i7 = load ptr, ptr %7, align 8
  %vfn.i.i.i8 = getelementptr inbounds i8, ptr %vtable.i.i.i7, i64 8
  %9 = load ptr, ptr %vfn.i.i.i8, align 8
  call void %9(ptr noundef nonnull align 8 dereferenceable(16) %7) #17
  br label %_ZN9grpc_core13RefCountedPtrINS_10HandshakerEED2Ev.exit9

_ZN9grpc_core13RefCountedPtrINS_10HandshakerEED2Ev.exit9: ; preds = %lpad, %if.then.i3, %if.then.i.i6
  resume { ptr, i32 } %6
}